target datalayout = "e-m:e-p270:32:32-p271:32:32-p272:64:64-i64:64-i128:128-f80:128-n8:16:32:64-S128"
target triple = "x86_64-unknown-linux-gnu"

%"class.std::vector" = type { %"struct.std::_Vector_base" }
%"struct.std::_Vector_base" = type { %"struct.std::_Vector_base<double, std::allocator<double>>::_Vector_impl" }
%"struct.std::_Vector_base<double, std::allocator<double>>::_Vector_impl" = type { %"struct.std::_Vector_base<double, std::allocator<double>>::_Vector_impl_data" }
%"struct.std::_Vector_base<double, std::allocator<double>>::_Vector_impl_data" = type { ptr, ptr, ptr }
%"class.QuantLib::PiecewiseConstantAbcdVariance" = type { %"class.QuantLib::PiecewiseConstantVariance", %"class.std::vector", %"class.std::vector", %"class.std::vector", double, double, double, double }
%"class.QuantLib::PiecewiseConstantVariance" = type { ptr }

; Function Attrs: mustprogress nounwind uwtable
define void @_ZNK8QuantLib29PiecewiseConstantAbcdVariance7getABCDERdS1_S1_S1_(ptr noundef nonnull align 8 dereferenceable(112) %this, ptr noundef nonnull align 8 dereferenceable(8) %a, ptr noundef nonnull align 8 dereferenceable(8) %b, ptr noundef nonnull align 8 dereferenceable(8) %c, ptr noundef nonnull align 8 dereferenceable(8) %d) #2 align 2 {
entry:
  %this.addr = alloca ptr, align 8
  %a.addr = alloca ptr, align 8
  %b.addr = alloca ptr, align 8
  %c.addr = alloca ptr, align 8
  %d.addr = alloca ptr, align 8
  store ptr %this, ptr %this.addr, align 8, !tbaa !3
  store ptr %a, ptr %a.addr, align 8, !tbaa !3
  store ptr %b, ptr %b.addr, align 8, !tbaa !3
  store ptr %c, ptr %c.addr, align 8, !tbaa !3
  store ptr %d, ptr %d.addr, align 8, !tbaa !3
  %this1 = load ptr, ptr %this.addr, align 8
  %a_ = getelementptr inbounds nuw %"class.QuantLib::PiecewiseConstantAbcdVariance", ptr %this1, i32 0, i32 4
  %0 = load double, ptr %a_, align 8, !tbaa !13
  %1 = load ptr, ptr %a.addr, align 8, !tbaa !3
  store double %0, ptr %1, align 8, !tbaa !7
  %b_ = getelementptr inbounds nuw %"class.QuantLib::PiecewiseConstantAbcdVariance", ptr %this1, i32 0, i32 5
  %2 = load double, ptr %b_, align 8, !tbaa !20
  %3 = load ptr, ptr %b.addr, align 8, !tbaa !3
  store double %2, ptr %3, align 8, !tbaa !7
  %c_ = getelementptr inbounds nuw %"class.QuantLib::PiecewiseConstantAbcdVariance", ptr %this1, i32 0, i32 6
  %4 = load double, ptr %c_, align 8, !tbaa !21
  %5 = load ptr, ptr %c.addr, align 8, !tbaa !3
  store double %4, ptr %5, align 8, !tbaa !7
  %d_ = getelementptr inbounds nuw %"class.QuantLib::PiecewiseConstantAbcdVariance", ptr %this1, i32 0, i32 7
  %6 = load double, ptr %d_, align 8, !tbaa !22
  %7 = load ptr, ptr %d.addr, align 8, !tbaa !3
  store double %6, ptr %7, align 8, !tbaa !7
  ret void
}