; Function Attrs: mustprogress nofree norecurse nosync nounwind willreturn memory(argmem: readwrite) uwtable
define void @_ZNK8QuantLib29PiecewiseConstantAbcdVariance7getABCDERdS1_S1_S1_(ptr nocapture noundef nonnull readonly align 8 dereferenceable(112) %this, ptr nocapture noundef nonnull writeonly align 8 dereferenceable(8) %a, ptr nocapture noundef nonnull writeonly align 8 dereferenceable(8) %b, ptr nocapture noundef nonnull writeonly align 8 dereferenceable(8) %c, ptr nocapture noundef nonnull writeonly align 8 dereferenceable(8) %d) local_unnamed_addr #7 align 2 {
entry:
  %a_ = getelementptr inbounds nuw i8, ptr %this, i64 80
  %0 = load double, ptr %a_, align 8, !tbaa !16
  store double %0, ptr %a, align 8, !tbaa !12
  %b_ = getelementptr inbounds nuw i8, ptr %this, i64 88
  %1 = load double, ptr %b_, align 8, !tbaa !22
  store double %1, ptr %b, align 8, !tbaa !12
  %c_ = getelementptr inbounds nuw i8, ptr %this, i64 96
  %2 = load double, ptr %c_, align 8, !tbaa !23
  store double %2, ptr %c, align 8, !tbaa !12
  %d_ = getelementptr inbounds nuw i8, ptr %this, i64 104
  %3 = load double, ptr %d_, align 8, !tbaa !24
  store double %3, ptr %d, align 8, !tbaa !12
  ret void
}